; Function Attrs: alwaysinline norecurse nounwind uwtable
define internal void @_ZNK8LightGBM16RegressionMetricINS_13TweedieMetricEE4EvalEPKdPKNS_17ObjectiveFunctionE.omp_outlined.116(ptr noalias noundef readonly captures(none) %0, ptr noalias readnone captures(none) %1, ptr noundef readonly captures(none) %2, ptr noundef nonnull readonly align 8 captures(none) dereferenceable(8) %3, ptr noundef nonnull readonly align 8 captures(none) dereferenceable(8) %4, ptr noundef nonnull align 8 captures(none) dereferenceable(8) %5) #15 personality ptr @__gxx_personality_v0 {
  %7 = alloca i32, align 4
  %8 = alloca i32, align 4
  %9 = alloca i32, align 4
  %10 = alloca i32, align 4
  %11 = alloca double, align 8
  %12 = alloca double, align 8
  %13 = alloca [1 x ptr], align 8
  %14 = getelementptr inbounds nuw i8, ptr %2, i64 8
  %15 = load i32, ptr %14, align 8, !tbaa !580
  %16 = icmp sgt i32 %15, 0
  br i1 %16, label %17, label %71

17:                                               ; preds = %6
  %18 = add nsw i32 %15, -1
  call void @llvm.lifetime.start.p0(i64 4, ptr nonnull %7) #16
  store i32 0, ptr %7, align 4, !tbaa !127
  call void @llvm.lifetime.start.p0(i64 4, ptr nonnull %8) #16
  store i32 %18, ptr %8, align 4, !tbaa !127
  call void @llvm.lifetime.start.p0(i64 4, ptr nonnull %9) #16
  store i32 1, ptr %9, align 4, !tbaa !127
  call void @llvm.lifetime.start.p0(i64 4, ptr nonnull %10) #16
  store i32 0, ptr %10, align 4, !tbaa !127
  call void @llvm.lifetime.start.p0(i64 8, ptr nonnull %11) #16
  store double 0.000000e+00, ptr %11, align 8, !tbaa !84
  %19 = load i32, ptr %0, align 4, !tbaa !127
  call void @__kmpc_for_static_init_4(ptr nonnull @1, i32 %19, i32 34, ptr nonnull %10, ptr nonnull %7, ptr nonnull %8, ptr nonnull %9, i32 1, i32 1)
  %20 = load i32, ptr %8, align 4, !tbaa !127
  %21 = call i32 @llvm.smin.i32(i32 %20, i32 %18)
  store i32 %21, ptr %8, align 4, !tbaa !127
  %22 = load i32, ptr %7, align 4, !tbaa !127
  %.not17 = icmp sgt i32 %22, %21
  br i1 %.not17, label %._crit_edge, label %.lr.ph

.lr.ph:                                           ; preds = %17
  %23 = getelementptr inbounds nuw i8, ptr %2, i64 16
  %24 = getelementptr inbounds nuw i8, ptr %2, i64 1368
  %25 = getelementptr inbounds nuw i8, ptr %2, i64 24
  %26 = sext i32 %22 to i64
  br label %27

27:                                               ; preds = %.lr.ph, %35
  %28 = phi double [ 0.000000e+00, %.lr.ph ], [ %59, %35 ]
  %indvars.iv = phi i64 [ %26, %.lr.ph ], [ %indvars.iv.next, %35 ]
  call void @llvm.lifetime.start.p0(i64 8, ptr nonnull %12) #16
  store double 0.000000e+00, ptr %12, align 8, !tbaa !84
  %29 = load ptr, ptr %3, align 8, !tbaa !82
  %30 = load ptr, ptr %4, align 8, !tbaa !81
  %31 = getelementptr inbounds double, ptr %30, i64 %indvars.iv
  %32 = load ptr, ptr %29, align 8, !tbaa !15
  %33 = getelementptr inbounds nuw i8, ptr %32, i64 136
  %34 = load ptr, ptr %33, align 8
  invoke void %34(ptr noundef nonnull align 8 dereferenceable(8) %29, ptr noundef %31, ptr noundef nonnull %12)
          to label %35 unwind label %72

35:                                               ; preds = %27
  %36 = load ptr, ptr %23, align 8, !tbaa !582
  %37 = getelementptr inbounds float, ptr %36, i64 %indvars.iv
  %38 = load float, ptr %37, align 4, !tbaa !78
  %39 = load double, ptr %12, align 8, !tbaa !84
  %40 = load double, ptr %24, align 8, !tbaa !586
  %41 = fcmp olt double %39, 0x3DDB7CDFE0000000
  %.0.i = select i1 %41, double 0x3DDB7CDFE0000000, double %39
  %42 = fpext float %38 to double
  %43 = fsub double 1.000000e+00, %40
  %44 = call double @llvm.log.f64(double %.0.i), !tbaa !127
  %45 = fmul double %43, %44
  %46 = call double @exp(double noundef %45) #16, !tbaa !127
  %47 = fsub double 2.000000e+00, %40
  %48 = fmul double %47, %44
  %49 = call double @exp(double noundef %48) #16, !tbaa !127
  %50 = fdiv double %49, %47
  %51 = fneg double %42
  %52 = fmul double %46, %51
  %53 = fdiv double %52, %43
  %54 = fadd double %53, %50
  %55 = load ptr, ptr %25, align 8, !tbaa !583
  %56 = getelementptr inbounds float, ptr %55, i64 %indvars.iv
  %57 = load float, ptr %56, align 4, !tbaa !78
  %58 = fpext float %57 to double
  %59 = call double @llvm.fmuladd.f64(double %54, double %58, double %28)
  store double %59, ptr %11, align 8, !tbaa !84
  call void @llvm.lifetime.end.p0(i64 8, ptr nonnull %12) #16
  %indvars.iv.next = add nsw i64 %indvars.iv, 1
  %60 = load i32, ptr %8, align 4, !tbaa !127
  %61 = sext i32 %60 to i64
  %.not.not = icmp slt i64 %indvars.iv, %61
  br i1 %.not.not, label %27, label %._crit_edge

._crit_edge:                                      ; preds = %35, %17
  call void @__kmpc_for_static_fini(ptr nonnull @1, i32 %19)
  store ptr %11, ptr %13, align 8
  %62 = call i32 @__kmpc_reduce_nowait(ptr nonnull @2, i32 %19, i32 1, i64 8, ptr nonnull %13, ptr nonnull @_ZNK8LightGBM16RegressionMetricINS_13TweedieMetricEE4EvalEPKdPKNS_17ObjectiveFunctionE.omp_outlined.116.omp.reduction.reduction_func, ptr nonnull @.gomp_critical_user_.reduction.var)
  switch i32 %62, label %70 [
    i32 1, label %63
    i32 2, label %67
  ]

63:                                               ; preds = %._crit_edge
  %64 = load double, ptr %5, align 8, !tbaa !84
  %65 = load double, ptr %11, align 8, !tbaa !84
  %66 = fadd double %64, %65
  store double %66, ptr %5, align 8, !tbaa !84
  call void @__kmpc_end_reduce_nowait(ptr nonnull @2, i32 %19, ptr nonnull @.gomp_critical_user_.reduction.var)
  br label %70

67:                                               ; preds = %._crit_edge
  %68 = load double, ptr %11, align 8, !tbaa !84
  %69 = atomicrmw fadd ptr %5, double %68 monotonic, align 8
  br label %70

70:                                               ; preds = %67, %63, %._crit_edge
  call void @llvm.lifetime.end.p0(i64 8, ptr nonnull %11) #16
  call void @llvm.lifetime.end.p0(i64 4, ptr nonnull %10) #16
  call void @llvm.lifetime.end.p0(i64 4, ptr nonnull %9) #16
  call void @llvm.lifetime.end.p0(i64 4, ptr nonnull %8) #16
  call void @llvm.lifetime.end.p0(i64 4, ptr nonnull %7) #16
  br label %71

71:                                               ; preds = %70, %6
  ret void

72:                                               ; preds = %27
  %73 = landingpad { ptr, i32 }
          catch ptr null
  %74 = extractvalue { ptr, i32 } %73, 0
  call void @__clang_call_terminate(ptr %74) #35
  unreachable
}